; Function Attrs: nounwind uwtable
define internal i32 @proxy_bool(ptr noundef readonly captures(none) %0) #0 {
  %2 = getelementptr i8, ptr %0, i64 16
  %.val = load ptr, ptr %2, align 8, !tbaa !37
  %3 = icmp eq ptr %.val, @_Py_NoneStruct
  br i1 %3, label %proxy_check_ref.exit, label %4

4:                                                ; preds = %1
  %.val.i.i = load i32, ptr %.val, align 8, !tbaa !42
  %.not.i.i = icmp eq i32 %.val.i.i, 0
  br i1 %.not.i.i, label %proxy_check_ref.exit, label %5

5:                                                ; preds = %4
  %6 = icmp slt i32 %.val.i.i, 0
  br i1 %6, label %_PyWeakref_GET_REF.exit, label %7

7:                                                ; preds = %5
  %8 = add nuw i32 %.val.i.i, 1
  store i32 %8, ptr %.val, align 8, !tbaa !42
  br label %_PyWeakref_GET_REF.exit

proxy_check_ref.exit:                             ; preds = %4, %1
  %9 = load ptr, ptr @PyExc_ReferenceError, align 8, !tbaa !45
  tail call void @PyErr_SetString(ptr noundef %9, ptr noundef nonnull @.str.21) #6
  br label %Py_DECREF.exit

_PyWeakref_GET_REF.exit:                          ; preds = %7, %5
  %10 = tail call i32 @PyObject_IsTrue(ptr noundef nonnull %.val) #6
  %11 = load i32, ptr %.val, align 8, !tbaa !42
  %.not.i = icmp sgt i32 %11, -1
  br i1 %.not.i, label %12, label %Py_DECREF.exit

12:                                               ; preds = %_PyWeakref_GET_REF.exit
  %13 = add nsw i32 %11, -1
  store i32 %13, ptr %.val, align 8, !tbaa !42
  %14 = icmp eq i32 %13, 0
  br i1 %14, label %15, label %Py_DECREF.exit

15:                                               ; preds = %12
  tail call void @_Py_Dealloc(ptr noundef nonnull %.val) #6
  br label %Py_DECREF.exit

Py_DECREF.exit:                                   ; preds = %15, %12, %_PyWeakref_GET_REF.exit, %proxy_check_ref.exit
  %.0 = phi i32 [ -1, %proxy_check_ref.exit ], [ %10, %_PyWeakref_GET_REF.exit ], [ %10, %12 ], [ %10, %15 ]
  ret i32 %.0
}